; Function Attrs: nounwind uwtable
define ptr @l_Lean_Elab_Term_runTactic___boxed(ptr noundef %0, ptr noundef %1, ptr noundef %2, ptr noundef %3, ptr noundef %4, ptr noundef %5, ptr noundef %6, ptr noundef %7, ptr noundef %8, ptr noundef %9, ptr noundef %10) local_unnamed_addr #0 {
  %12 = ptrtoint ptr %3 to i64
  %13 = and i64 %12, 1
  %.not = icmp eq i64 %13, 0
  br i1 %.not, label %14, label %lean_dec.exit

14:                                               ; preds = %11
  %15 = load i32, ptr %3, align 4, !tbaa !7
  %16 = icmp sgt i32 %15, 1
  br i1 %16, label %17, label %19, !prof !12

17:                                               ; preds = %14
  %18 = add nsw i32 %15, -1
  store i32 %18, ptr %3, align 4, !tbaa !7
  br label %lean_dec.exit

19:                                               ; preds = %14
  %.not.i = icmp eq i32 %15, 0
  br i1 %.not.i, label %lean_dec.exit, label %20

20:                                               ; preds = %19
  tail call void @lean_dec_ref_cold(ptr noundef nonnull %3) #7
  br label %lean_dec.exit

lean_dec.exit:                                    ; preds = %20, %19, %17, %11
  tail call void @lean_inc_heartbeat() #7
  %21 = tail call noalias ptr @mi_malloc_small(i64 noundef 56) #7
  %22 = icmp eq ptr %21, null
  br i1 %22, label %23, label %l_Lean_Elab_Term_runTactic.exit

23:                                               ; preds = %lean_dec.exit
  tail call void @lean_internal_panic_out_of_memory() #8
  unreachable

l_Lean_Elab_Term_runTactic.exit:                  ; preds = %lean_dec.exit
  %24 = and i64 %12, 510
  %25 = or disjoint i64 %24, 1
  %26 = inttoptr i64 %25 to ptr
  %27 = getelementptr inbounds nuw i8, ptr %21, i64 4
  store i32 1, ptr %21, align 4, !tbaa !7
  store i32 -184549320, ptr %27, align 4
  %28 = getelementptr inbounds nuw i8, ptr %21, i64 8
  store ptr @l_Lean_Elab_Term_runTactic___lambda__7___boxed, ptr %28, align 8, !tbaa !10
  %29 = getelementptr inbounds nuw i8, ptr %21, i64 16
  store i16 11, ptr %29, align 8, !tbaa !17
  %30 = getelementptr inbounds nuw i8, ptr %21, i64 18
  store i16 4, ptr %30, align 2, !tbaa !17
  %31 = getelementptr inbounds nuw i8, ptr %21, i64 24
  store ptr %26, ptr %31, align 8, !tbaa !10
  %32 = getelementptr inbounds nuw i8, ptr %21, i64 32
  store ptr %0, ptr %32, align 8, !tbaa !10
  %33 = getelementptr inbounds nuw i8, ptr %21, i64 40
  store ptr %1, ptr %33, align 8, !tbaa !10
  %34 = getelementptr inbounds nuw i8, ptr %21, i64 48
  store ptr %2, ptr %34, align 8, !tbaa !10
  %35 = tail call ptr @l_Lean_Elab_Term_withoutAutoBoundImplicit___rarg(ptr noundef nonnull %21, ptr noundef %4, ptr noundef %5, ptr noundef %6, ptr noundef %7, ptr noundef %8, ptr noundef %9, ptr noundef %10) #7
  ret ptr %35
}